; Function Attrs: nounwind uwtable
define hidden ptr @SDL_ConvertSurface_REAL(ptr noundef %0, i32 noundef %1) local_unnamed_addr #2 {
  %.not.i = icmp eq ptr %0, null
  br i1 %.not.i, label %SDL_SurfaceValid.exit.thread, label %SDL_SurfaceValid.exit

SDL_SurfaceValid.exit:                            ; preds = %2
  %3 = getelementptr inbounds nuw i8, ptr %0, i64 40
  %4 = load ptr, ptr %3, align 8
  %5 = icmp eq ptr %4, @SDL_surface_magic
  br i1 %5, label %7, label %SDL_SurfaceValid.exit.thread

SDL_SurfaceValid.exit.thread:                     ; preds = %2, %SDL_SurfaceValid.exit
  %6 = tail call zeroext i1 (ptr, ...) @SDL_SetError_REAL(ptr noundef nonnull @.str, ptr noundef nonnull @.str.5) #10
  br label %12

7:                                                ; preds = %SDL_SurfaceValid.exit
  %8 = tail call i32 @SDL_GetDefaultColorspaceForFormat(i32 noundef %1) #10
  %9 = getelementptr inbounds nuw i8, ptr %0, i64 52
  %10 = load i32, ptr %9, align 4
  %11 = tail call ptr @SDL_ConvertSurfaceAndColorspace_REAL(ptr noundef nonnull %0, i32 noundef %1, ptr noundef null, i32 noundef %8, i32 noundef %10)
  br label %12

12:                                               ; preds = %7, %SDL_SurfaceValid.exit.thread
  %.0 = phi ptr [ %11, %7 ], [ null, %SDL_SurfaceValid.exit.thread ]
  ret ptr %.0
}